(lp0
(dp1
S'state_abbrev'
p2
S'de'
p3
sS'raster_tile_y'
p4
I1964
sS'raster_filename'
p5
S'/DeepOSM/data/naip/38075/m_3807503_ne_18_1_20130907.tif'
p6
sS'sw_lon'
p7
F38.98447064923642
sS'certainty'
p8
F0.6329594850540161
sS'ne_lon'
p9
F38.98505164877841
sS'raster_tile_x'
p10
I876
sS'sw_lat'
p11
F-75.68130983118182
sS'ne_lat'
p12
F-75.6805764663821
sa(dp13
g2
g3
sg4
I2860
sg5
g6
sg7
F38.976409936289684
sg8
F0.5292571187019348
sg9
F38.976990921639754
sg10
I1068
sg11
F-75.67901604985796
sg12
F-75.67828274829017
sa(dp14
g2
g3
sg4
I5356
sg5
g6
sg7
F38.95392761867436
sg8
F0.5310176014900208
sg9
F38.95450859368165
sg10
I1196
sg11
F-75.67732423639195
sg12
F-75.6765911499263
sa(dp15
g2
g3
sg4
I3308
sg5
g6
sg7
F38.97242011426513
sg8
F0.5274673104286194
sg9
F38.97300104892578
sg10
I1772
sg11
F-75.67085111847784
sg12
F-75.67011779012407
sa(dp16
g2
g3
sg4
I364
sg5
g6
sg7
F38.999031874914124
sg8
F0.5725561380386353
sg9
F38.99961271901364
sg10
I3052
sg11
F-75.65632074470959
sg12
F-75.65558702474286
sa(dp17
g2
g3
sg4
I5676
sg5
g6
sg7
F38.95118717960851
sg8
F0.5994570851325989
sg9
F38.951767998513944
sg10
I3372
sg11
F-75.65218634230192
sg12
F-75.65145307627033
sa(dp18
g2
g3
sg4
I6828
sg5
g6
sg7
F38.9409043385975
sg8
F0.535581648349762
sg9
F38.941485046911794
sg10
I4908
sg11
F-75.63436868945733
sg12
F-75.63363538126052
sa(dp19
g2
g3
sg4
I1324
sg5
S'/DeepOSM/data/naip/38075/m_3807503_nw_18_1_20130907.tif'
p20
sg7
F38.99043672491981
sg8
F0.6064967513084412
sg9
F38.99101792046546
sg10
I3564
sg11
F-75.71287799672602
sg12
F-75.71214483220635
sa(dp21
g2
g3
sg4
I3628
sg5
g20
sg7
F38.96974324270256
sg8
F0.5330354571342468
sg9
F38.970324368246494
sg10
I4524
sg11
F-75.7015889049212
sg12
F-75.70085585785984
sa(dp22
g2
g3
sg4
I1068
sg5
g20
sg7
F38.992837242567546
sg8
F0.5258111953735352
sg9
F38.99341834189547
sg10
I4908
sg11
F-75.6973827828901
sg12
F-75.69664946568736
sa(dp23
g2
g3
sg4
I6252
sg5
S'/DeepOSM/data/naip/38075/m_3807503_se_18_1_20130907.tif'
p24
sg7
F38.88332107601067
sg8
F0.5516144037246704
sg9
F38.883902083107984
sg10
I748
sg11
F-75.68241800641258
sg12
F-75.68168567966562
sa(dp25
g2
g3
sg4
I2604
sg5
g24
sg7
F38.916209965509715
sg8
F0.6525157690048218
sg9
F38.916790956027675
sg10
I1004
sg11
F-75.67978000810861
sg12
F-75.67904732563528
sa(dp26
g2
g3
sg4
I3628
sg5
g24
sg7
F38.90710549505226
sg8
F0.5154668688774109
sg9
F38.90768635229656
sg10
I2860
sg11
F-75.65828752905487
sg12
F-75.65755476196537
sa(dp27
g2
g3
sg4
I2540
sg5
g24
sg7
F38.91691766796206
sg8
F0.5527695417404175
sg9
F38.917498516507486
sg10
I2988
sg11
F-75.6569017191317
sg12
F-75.65616884085247
sa(dp28
g2
g3
sg4
I2732
sg5
g24
sg7
F38.915187576406495
sg8
F0.5135316252708435
sg9
F38.91576842487032
sg10
I2988
sg11
F-75.65688576915036
sg12
F-75.6561529083352
sa(dp29
g2
g3
sg4
I5996
sg5
g24
sg7
F38.885825394437354
sg8
F0.5029478669166565
sg9
F38.886406186582334
sg10
I3756
sg11
F-75.64776041590532
sg12
F-75.64702777836222
sa(dp30
g2
g3
sg4
I1068
sg5
g24
sg7
F38.93026386567271
sg8
F0.5042775273323059
sg9
F38.93084462313594
sg10
I4268
sg11
F-75.64225748489201
sg12
F-75.64152435010189
sa(dp31
g2
g3
sg4
I1068
sg5
g24
sg7
F38.930280077485385
sg8
F0.6924278140068054
sg9
F38.93086081660228
sg10
I4524
sg11
F-75.63930416509638
sg12
F-75.63857100580023
sa(dp32
g2
g3
sg4
I1132
sg5
g24
sg7
F38.929707420870024
sg8
F0.668639600276947
sg9
F38.930288155375216
sg10
I4588
sg11
F-75.63856066390031
sg12
F-75.63782750430778
sa(dp33
g2
g3
sg4
I5548
sg5
g24
sg7
F38.88996716388117
sg8
F0.6557508111000061
sg9
F38.890547837120764
sg10
I5420
sg11
F-75.62861135786073
sg12
F-75.62787852065402
sa(dp34
g2
g3
sg4
I7212
sg5
S'/DeepOSM/data/naip/38075/m_3807503_sw_18_1_20130907.tif'
p35
sg7
F38.87469025356731
sg8
F0.536365270614624
sg9
F38.875271633519006
sg10
I940
sg11
F-75.74262661742274
sg12
F-75.74189487445365
sa(dp36
g2
g3
sg4
I6892
sg5
S'/DeepOSM/data/naip/38075/m_3807504_ne_18_1_20130907.tif'
p37
sg7
F38.94005745539765
sg8
F0.6170298457145691
sg9
F38.940637679981464
sg10
I812
sg11
F-75.5566141793211
sg12
F-75.55588023947625
sa(dp38
g2
g3
sg4
I1580
sg5
g37
sg7
F38.98796580656048
sg8
F0.6339275240898132
sg9
F38.988545977050556
sg10
I1580
sg11
F-75.5481215780811
sg12
F-75.54738707845279
sa(dp39
g2
g3
sg4
I1900
sg5
g37
sg7
F38.985089230138776
sg8
F0.6626209020614624
sg9
F38.98566939134619
sg10
I1708
sg11
F-75.54662151811549
sg12
F-75.54588703558174
sa(dp40
g2
g3
sg4
I1772
sg5
g37
sg7
F38.986290638163005
sg8
F0.5433399677276611
sg9
F38.98687073487167
sg10
I2604
sg11
F-75.53628544555586
sg12
F-75.53555086559497
sa(dp41
g2
g3
sg4
I876
sg5
g37
sg7
F38.99439149997604
sg8
F0.5177570581436157
sg9
F38.99497155995977
sg10
I3116
sg11
F-75.53043429897929
sg12
F-75.52969958784512
sa(dp42
g2
g3
sg4
I2156
sg5
S'/DeepOSM/data/naip/38075/m_3807504_nw_18_1_20130907.tif'
p43
sg7
F38.98273362771672
sg8
F0.5805962085723877
sg9
F38.983314242910545
sg10
I812
sg11
F-75.61949022089648
sg12
F-75.61875636322293
sa(dp44
g2
g3
sg4
I3244
sg5
g43
sg7
F38.97292980808133
sg8
F0.5093357563018799
sg9
F38.97351042289331
sg10
I812
sg11
F-75.61940480187359
sg12
F-75.61867104361967
sa(dp45
g2
g3
sg4
I2924
sg5
g43
sg7
F38.97581720557402
sg8
F0.5111782550811768
sg9
F38.97639781590129
sg10
I876
sg11
F-75.61869111508057
sg12
F-75.61795732145525
sa(dp46
g2
g3
sg4
I1772
sg5
g43
sg7
F38.98624826138393
sg8
F0.5269901156425476
sg9
F38.986828812322486
sg10
I1708
sg11
F-75.6091755754487
sg12
F-75.60844159674984
sa(dp47
g2
g3
sg4
I4972
sg5
g43
sg7
F38.957421109912296
sg8
F0.6121878027915955
sg9
F38.95800165060353
sg10
I1836
sg11
F-75.60745137951909
sg12
F-75.60671768101189
sa(dp48
g2
g3
sg4
I2668
sg5
g43
sg7
F38.97818990690884
sg8
F0.6499728560447693
sg9
F38.97877043915584
sg10
I1964
sg11
F-75.60615106238126
sg12
F-75.60541714107556
sa(dp49
g2
g3
sg4
I6636
sg5
g43
sg7
F38.94243460238962
sg8
F0.705203652381897
sg9
F38.94301513335109
sg10
I1964
sg11
F-75.60584648768166
sg12
F-75.6051129288457
sa(dp50
g2
g3
sg4
I1068
sg5
g43
sg7
F38.99263406981729
sg8
F0.5079624056816101
sg9
F38.993214570371414
sg10
I2412
sg11
F-75.60110115027656
sg12
F-75.60036703967299
sa(dp51
g2
g3
sg4
I1132
sg5
g43
sg7
F38.9920839082854
sg8
F0.576659083366394
sg9
F38.99266437660292
sg10
I2860
sg11
F-75.59592342937833
sg12
F-75.5951892816822
sa(dp52
g2
g3
sg4
I1132
sg5
g43
sg7
F38.99215108632325
sg8
F0.6226596832275391
sg9
F38.99273147177625
sg10
I4012
sg11
F-75.5826218031793
sg12
F-75.58188754507958
sa(dp53
g2
g3
sg4
I7148
sg5
g43
sg7
F38.937955937311415
sg8
F0.5544880628585815
sg9
F38.93853630271539
sg10
I4268
sg11
F-75.57922426432634
sg12
F-75.57849053197191
sa(dp54
g2
g3
sg4
I2156
sg5
g43
sg7
F38.98294962181746
sg8
F0.6226488947868347
sg9
F38.98352997476319
sg10
I4460
sg11
F-75.57737397168414
sg12
F-75.57663976444067
sa(dp55
g2
g3
sg4
I3436
sg5
g43
sg7
F38.97143020706888
sg8
F0.5673238635063171
sg9
F38.972010541265185
sg10
I4716
sg11
F-75.57432525018551
sg12
F-75.57359113560533
sa(dp56
g2
g3
sg4
I6252
sg5
g43
sg7
F38.94608423371601
sg8
F0.5976261496543884
sg9
F38.94666453039164
sg10
I5228
sg11
F-75.56821241901221
sg12
F-75.56747851305566
sa.