(lp0
(dp1
S'state_abbrev'
p2
S'me'
p3
sS'raster_tile_y'
p4
I2860
sS'raster_filename'
p5
S'/DeepOSM/data/naip/43068/m_4306809_ne_19_1_20130810.tif'
p6
sS'sw_lon'
p7
F43.851408308269285
sS'certainty'
p8
F0.5267931222915649
sS'ne_lon'
p9
F43.85198385933932
sS'raster_tile_x'
p10
I3180
sS'sw_lat'
p11
F-68.90169698488535
sS'ne_lat'
p12
F-68.90089975383611
sa(dp13
g2
g3
sg4
I2796
sg5
g6
sg7
F43.85198385933932
sg8
F0.6194839477539062
sg9
F43.85255940477517
sg10
I3244
sg11
F-68.90089975383611
sg12
F-68.90010250745308
sa(dp14
g2
g3
sg4
I1580
sg5
g6
sg7
F43.86292957760857
sg8
F0.5990625619888306
sg9
F43.8635050994144
sg10
I3500
sg11
F-68.89769589863248
sg12
F-68.89689847542454
sa(dp15
g2
g3
sg4
I2540
sg5
g6
sg7
F43.854282374184265
sg8
F0.5417095422744751
sg9
F43.85485786926352
sg10
I3820
sg11
F-68.89372910118367
sg12
F-68.89293175527128
sa(dp16
g2
g3
sg4
I1324
sg5
g6
sg7
F43.86522557161858
sg8
F0.5011814832687378
sg9
F43.86580102634412
sg10
I4268
sg11
F-68.88813442907156
sg12
F-68.88733688336139
sa(dp17
g2
g3
sg4
I4844
sg5
g6
sg7
F43.83353243888622
sg8
F0.9176273345947266
sg9
F43.83410789768138
sg10
I4268
sg11
F-68.88819364754546
sg12
F-68.8873965252296
sa(dp18
g2
g3
sg4
I4844
sg5
g6
sg7
F43.83353087025796
sg8
F0.8991082310676575
sg9
F43.83410631793215
sg10
I4396
sg11
F-68.88660156993669
sg12
F-68.88580443236607
sa(dp19
g2
g3
sg4
I1068
sg5
g6
sg7
F43.86752815579353
sg8
F0.5688512921333313
sg9
F43.86810359352179
sg10
I4460
sg11
F-68.88574064519577
sg12
F-68.88494304574432
sa(dp20
g2
g3
sg4
I2348
sg5
S'/DeepOSM/data/naip/43069/m_4306901_ne_19_1_20130810.tif'
p21
sg7
F43.98099427566768
sg8
F0.7774664759635925
sg9
F43.98157696858641
sg10
I364
sg11
F-69.93739596983845
sg12
F-69.9366071270262
sa(dp22
g2
g3
sg4
I2860
sg5
g21
sg7
F43.976404690119544
sg8
F0.5454494953155518
sg9
F43.97698736615212
sg10
I556
sg11
F-69.93492993228588
sg12
F-69.93414112507742
sa(dp23
g2
g3
sg4
I2348
sg5
g21
sg7
F43.98102041633595
sg8
F0.5626887083053589
sg9
F43.98160308749315
sg10
I620
sg11
F-69.9342043637288
sg12
F-69.93341548898292
sa(dp24
g2
g3
sg4
I3692
sg5
g21
sg7
F43.96892777549585
sg8
F0.5478735566139221
sg9
F43.96951043973364
sg10
I684
sg11
F-69.93321694703319
sg12
F-69.93242822061458
sa(dp25
g2
g3
sg4
I3436
sg5
g21
sg7
F43.97123889328523
sg8
F0.5444750189781189
sg9
F43.97182155236569
sg10
I748
sg11
F-69.93245526453933
sg12
F-69.93166650037627
sa(dp26
g2
g3
sg4
I4396
sg5
g21
sg7
F43.96262909414703
sg8
F0.5137097239494324
sg9
F43.96321172498518
sg10
I1068
sg11
F-69.92833178635885
sg12
F-69.92754309393162
sa(dp27
g2
g3
sg4
I5932
sg5
g21
sg7
F43.94880141356144
sg8
F0.9123897552490234
sg9
F43.94938404272717
sg10
I1068
sg11
F-69.92811652353492
sg12
F-69.92732800960553
sa(dp28
g2
g3
sg4
I876
sg5
g21
sg7
F43.9943820003676
sg8
F0.587102472782135
sg9
F43.99496458059839
sg10
I1708
sg11
F-69.92084484960351
sg12
F-69.92005566778289
sa(dp29
g2
g3
sg4
I1708
sg5
g21
sg7
F43.986911303694626
sg8
F0.7286992073059082
sg9
F43.9874938667003
sg10
I1900
sg11
F-69.91833508966509
sg12
F-69.91754598079095
sa(dp30
g2
g3
sg4
I684
sg5
g21
sg7
F43.99613613808293
sg8
F0.5718812942504883
sg9
F43.996718696737396
sg10
I1964
sg11
F-69.91767914964437
sg12
F-69.91688991351913
sa(dp31
g2
g3
sg4
I1132
sg5
g21
sg7
F43.99210307977757
sg8
F0.541254997253418
sg9
F43.992685637953784
sg10
I1964
sg11
F-69.9176169967805
sg12
F-69.91682781284294
sa(dp32
g2
g3
sg4
I940
sg5
g21
sg7
F43.99383794076216
sg8
F0.5476200580596924
sg9
F43.994420493697845
sg10
I2028
sg11
F-69.91684555457297
sg12
F-69.9160563402871
sa(dp33
g2
g3
sg4
I6700
sg5
g21
sg7
F43.94206039042039
sg8
F0.5701392889022827
sg9
F43.94264287198947
sg10
I2796
sg11
F-69.90647959570484
sg12
F-69.90569095599672
sa(dp34
g2
g3
sg4
I6700
sg5
g21
sg7
F43.94206671364541
sg8
F0.5985273122787476
sg9
F43.942649189777256
sg10
I2860
sg11
F-69.90568220854757
sg12
F-69.9048935608803
sa(dp35
g2
g3
sg4
I6508
sg5
g21
sg7
F43.94384557703344
sg8
F0.7840504050254822
sg9
F43.944428009860516
sg10
I3372
sg11
F-69.89932916028809
sg12
F-69.89854042663231
sa(dp36
g2
g3
sg4
I5868
sg5
g21
sg7
F43.949644731296104
sg8
F0.5384058356285095
sg9
F43.95022713214064
sg10
I3756
sg11
F-69.8946310967997
sg12
F-69.89384224096078
sa(dp37
g2
g3
sg4
I1132
sg5
g21
sg7
F43.99229285591857
sg8
F0.6872270107269287
sg9
F43.992875250688876
sg10
I3884
sg11
F-69.89367525066754
sg12
F-69.89288582734238
sa(dp38
g2
g3
sg4
I5996
sg5
g21
sg7
F43.94852356253676
sg8
F0.6797518134117126
sg9
F43.94910593604918
sg10
I4076
sg11
F-69.89062643029945
sg12
F-69.8898375495599
sa(dp39
g2
g3
sg4
I1836
sg5
g21
sg7
F43.9859924903345
sg8
F0.5176973342895508
sg9
F43.98657485170294
sg10
I4268
sg11
F-69.8887922869694
sg12
F-69.88800289787255
sa(dp40
g2
g3
sg4
I5804
sg5
g21
sg7
F43.95027066694479
sg8
F0.862246036529541
sg9
F43.95085302432732
sg10
I4268
sg11
F-69.88825974186985
sg12
F-69.88747081491837
sa(dp41
g2
g3
sg4
I1260
sg5
g21
sg7
F43.991196497923006
sg8
F0.6790128350257874
sg9
F43.99177884352306
sg10
I4460
sg11
F-69.88647552785154
sg12
F-69.88568604767619
sa(dp42
g2
g3
sg4
I1452
sg5
g21
sg7
F43.98949891618681
sg8
F0.5617359280586243
sg9
F43.99008123434769
sg10
I4780
sg11
F-69.8824596672131
sg12
F-69.88167016956449
sa(dp43
g2
g3
sg4
I1324
sg5
g21
sg7
F43.99066354712221
sg8
F0.5393396019935608
sg9
F43.99124585451005
sg10
I4908
sg11
F-69.88088065647962
sg12
F-69.88009112795801
sa(dp44
g2
g3
sg4
I1004
sg5
g21
sg7
F43.99355662867243
sg8
F0.5571279525756836
sg9
F43.99413892547512
sg10
I5036
sg11
F-69.87932710703078
sg12
F-69.87853752523571
sa(dp45
g2
g3
sg4
I940
sg5
g21
sg7
F43.99415118782362
sg8
F0.556460440158844
sg9
F43.99473346833578
sg10
I5228
sg11
F-69.87694134451935
sg12
F-69.87615173133958
sa(dp46
g2
g3
sg4
I556
sg5
g21
sg7
F43.99761425593382
sg8
F0.6096866726875305
sg9
F43.99819653137048
sg10
I5292
sg11
F-69.8761941229116
sg12
F-69.87540445694941
sa(dp47
g2
g3
sg4
I4460
sg5
S'/DeepOSM/data/naip/43069/m_4306901_nw_19_1_20130810.tif'
p48
sg7
F43.96198059260354
sg8
F0.5453027486801147
sg9
F43.96256370355739
sg10
I428
sg11
F-69.99882276811528
sg12
F-69.99803478192376
sa(dp49
g2
g3
sg4
I1772
sg5
g48
sg7
F43.98622022373346
sg8
F0.7850557565689087
sg9
F43.98680330542557
sg10
I812
sg11
F-69.99444072876595
sg12
F-69.99365238277237
sa(dp50
g2
g3
sg4
I2668
sg5
g48
sg7
F43.978188917900006
sg8
F0.6485352516174316
sg9
F43.97877197133122
sg10
I1132
sg11
F-69.99031683533082
sg12
F-69.9895285533393
sa(dp51
g2
g3
sg4
I2476
sg5
g48
sg7
F43.979951849395235
sg8
F0.5208505392074585
sg9
F43.98053487589817
sg10
I1452
sg11
F-69.98635619252728
sg12
F-69.98556784826371
sa(dp52
g2
g3
sg4
I1388
sg5
g48
sg7
F43.989773756784416
sg8
F0.5918624401092529
sg9
F43.99035676286806
sg10
I1708
sg11
F-69.98332636758602
sg12
F-69.9825378649861
sa(dp53
g2
g3
sg4
I4588
sg5
g48
sg7
F43.96097350782085
sg8
F0.7215090394020081
sg9
F43.96155650461461
sg10
I1772
sg11
F-69.98205345042086
sg12
F-69.981265311269
sa(dp54
g2
g3
sg4
I1452
sg5
g48
sg7
F43.989225043430004
sg8
F0.5405540466308594
sg9
F43.98980802769516
sg10
I1964
sg11
F-69.98012485195711
sg12
F-69.97933632479297
sa(dp55
g2
g3
sg4
I3308
sg5
g48
sg7
F43.972523760679834
sg8
F0.6168792247772217
sg9
F43.97310673728562
sg10
I2028
sg11
F-69.97905222014295
sg12
F-69.97826390050793
sa(dp56
g2
g3
sg4
I6956
sg5
g48
sg7
F43.93970396477231
sg8
F0.8026450276374817
sg9
F43.94028692073391
sg10
I2220
sg11
F-69.97612110204288
sg12
F-69.97533318156077
sa(dp57
g2
g3
sg4
I4076
sg5
g48
sg7
F43.96563733226837
sg8
F0.7547227740287781
sg9
F43.96622028622887
sg10
I2284
sg11
F-69.975747905649
sg12
F-69.97495964318942
sa(dp58
g2
g3
sg4
I6828
sg5
g48
sg7
F43.940876669387535
sg8
F0.8100785613059998
sg9
F43.94145960922034
sg10
I2412
sg11
F-69.97374789000685
sg12
F-69.97295993075667
sa(dp59
g2
g3
sg4
I6572
sg5
g48
sg7
F43.94326913324746
sg8
F0.7012282013893127
sg9
F43.94385200281423
sg10
I3244
sg11
F-69.96341945981929
sg12
F-69.962631367193
sa(dp60
g2
g3
sg4
I2668
sg5
g48
sg7
F43.97844768520959
sg8
F0.5163717865943909
sg9
F43.979030532142176
sg10
I3564
sg11
F-69.95999829367368
sg12
F-69.9592097079377
sa(dp61
g2
g3
sg4
I428
sg5
g48
sg7
F43.99869285182994
sg8
F0.7816486358642578
sg9
F43.99927563606542
sg10
I4332
sg11
F-69.95074578950955
sg12
F-69.94995684739834
sa(dp62
g2
g3
sg4
I1708
sg5
g48
sg7
F43.98718320093715
sg8
F0.5615851879119873
sg9
F43.9877659728372
sg10
I4460
sg11
F-69.94896586904144
sg12
F-69.94817705985315
sa(dp63
g2
g3
sg4
I5676
sg5
g48
sg7
F43.95147521557829
sg8
F0.6073703169822693
sg9
F43.95205797211727
sg10
I4588
sg11
F-69.94680224174523
sg12
F-69.94601387767698
sa(dp64
g2
g3
sg4
I3180
sg5
S'/DeepOSM/data/naip/43069/m_4306901_se_19_1_20130731.tif'
p65
sg7
F43.911008271134754
sg8
F0.9672012329101562
sg9
F43.91159095663592
sg10
I428
sg11
F-69.93647107130312
sg12
F-69.93568313287948
sa(dp66
g2
g3
sg4
I3244
sg5
g65
sg7
F43.910451684118875
sg8
F0.9638513922691345
sg9
F43.911034353268384
sg10
I620
sg11
F-69.93407116159852
sg12
F-69.93328320672947
sa(dp67
g2
g3
sg4
I2028
sg5
g65
sg7
F43.921405170526015
sg8
F0.9770457744598389
sg9
F43.921987835584055
sg10
I684
sg11
F-69.93344532435721
sg12
F-69.93265722054358
sa(dp68
g2
g3
sg4
I3308
sg5
g65
sg7
F43.909895046246234
sg8
F0.9853727221488953
sg9
F43.910477699043724
sg10
I812
sg11
F-69.93167129586602
sg12
F-69.93088332455476
sa(dp69
g2
g3
sg4
I6316
sg5
g65
sg7
F43.88281558089948
sg8
F0.5215606689453125
sg9
F43.883398230406776
sg10
I812
sg11
F-69.93124914472595
sg12
F-69.93046152185374
sa(dp70
g2
g3
sg4
I2156
sg5
g65
sg7
F43.9203112368165
sg8
F0.5137389302253723
sg9
F43.920893852867216
sg10
I1260
sg11
F-69.92625348897842
sg12
F-69.92546532839788
sa(dp71
g2
g3
sg4
I3692
sg5
g65
sg7
F43.906502795397046
sg8
F0.9939720034599304
sg9
F43.90708539350103
sg10
I1452
sg11
F-69.92364830073137
sg12
F-69.9228602944226
sa(dp72
g2
g3
sg4
I3372
sg5
g65
sg7
F43.9094093149865
sg8
F0.8785454034805298
sg9
F43.909991891720566
sg10
I1708
sg11
F-69.92050506349588
sg12
F-69.9197169882843
sa(dp73
g2
g3
sg4
I3372
sg5
g65
sg7
F43.909422144101434
sg8
F0.5320399403572083
sg9
F43.91000470997748
sg10
I1836
sg11
F-69.91891116721482
sg12
F-69.91812307610407
sa(dp74
g2
g3
sg4
I3628
sg5
g65
sg7
F43.90711750539898
sg8
F0.9985343217849731
sg9
F43.90770007100176
sg10
I1836
sg11
F-69.91887570940634
sg12
F-69.91808764798313
sa(dp75
g2
g3
sg4
I3628
sg5
g65
sg7
F43.907130311261206
sg8
F0.982146680355072
sg9
F43.907712866006364
sg10
I1964
sg11
F-69.91728187355307
sg12
F-69.91649379623342
sa(dp76
g2
g3
sg4
I3564
sg5
g65
sg7
F43.907712866006364
sg8
F0.9660447239875793
sg9
F43.9082954153905
sg10
I2028
sg11
F-69.91649379623342
sg12
F-69.91570570354367
sa(dp77
g2
g3
sg4
I3564
sg5
g65
sg7
F43.907725638783646
sg8
F0.9931647181510925
sg9
F43.908308177309245
sg10
I2156
sg11
F-69.91489994343203
sg12
F-69.91411183484668
sa(dp78
g2
g3
sg4
I3180
sg5
g65
sg7
F43.91118897877418
sg8
F0.6498607397079468
sg9
F43.91177151227628
sg10
I2220
sg11
F-69.91415592982632
sg12
F-69.91336776875097
sa(dp79
g2
g3
sg4
I3372
sg5
g65
sg7
F43.90951132550269
sg8
F0.5068506598472595
sg9
F43.91009381535941
sg10
I2732
sg11
F-69.90775386382262
sg12
F-69.90696566144202
sa(dp80
g2
g3
sg4
I5548
sg5
g65
sg7
F43.88998479676562
sg8
F0.822222888469696
sg9
F43.890567230076016
sg10
I3372
sg11
F-69.89948934161514
sg12
F-69.89870131220886
sa(dp81
g2
g3
sg4
I6956
sg5
g65
sg7
F43.87731542632036
sg8
F0.5618847608566284
sg9
F43.87789785276143
sg10
I3436
sg11
F-69.89850210081904
sg12
F-69.8977142266819
sa(dp82
g2
g3
sg4
I5612
sg5
g65
sg7
F43.88943367263055
sg8
F0.5988558530807495
sg9
F43.89001608416187
sg10
I3628
sg11
F-69.89629392474822
sg12
F-69.89550587102094
sa(dp83
g2
g3
sg4
I6700
sg5
g65
sg7
F43.87970723583314
sg8
F0.6811056137084961
sg9
F43.8802895865553
sg10
I4332
sg11
F-69.887384933497
sg12
F-69.88659691867382
sa(dp84
g2
g3
sg4
I6188
sg5
g65
sg7
F43.884341277361315
sg8
F0.7414147853851318
sg9
F43.88492360687884
sg10
I4588
sg11
F-69.88426687338263
sg12
F-69.88347876747106
sa(dp85
g2
g3
sg4
I620
sg5
S'/DeepOSM/data/naip/43069/m_4306901_sw_19_1_20130731.tif'
p86
sg7
F43.934214471471286
sg8
F0.6824834942817688
sg9
F43.934797460959864
sg10
I1900
sg11
F-69.98106474314442
sg12
F-69.98027694311612
sa(dp87
g2
g3
sg4
I2476
sg5
g86
sg7
F43.917601429713834
sg8
F0.9489414095878601
sg9
F43.918184341059195
sg10
I2796
sg11
F-69.96963153726266
sg12
F-69.96884384057623
sa(dp88
g2
g3
sg4
I2412
sg5
g86
sg7
F43.918184341059195
sg8
F0.9896113872528076
sg9
F43.918767247056294
sg10
I2860
sg11
F-69.96884384057623
sg12
F-69.96805612851225
sa(dp89
g2
g3
sg4
I4972
sg5
g86
sg7
F43.89514502797267
sg8
F0.7754223942756653
sg9
F43.8957279255468
sg10
I2924
sg11
F-69.96767333607056
sg12
F-69.96688591231181
sa(dp90
g2
g3
sg4
I5036
sg5
g86
sg7
F43.894568875029705
sg8
F0.5678035616874695
sg9
F43.89515177252891
sg10
I2924
sg11
F-69.96766400549858
sg12
F-69.96687658914219
sa(dp91
g2
g3
sg4
I2412
sg5
g86
sg7
F43.918197846521096
sg8
F0.8540639877319336
sg9
F43.91878074167072
sg10
I2988
sg11
F-69.96724973226004
sg12
F-69.96646200426281
sa(dp92
g2
g3
sg4
I2540
sg5
g86
sg7
F43.917045545097814
sg8
F0.8900855779647827
sg9
F43.91762844009762
sg10
I2988
sg11
F-69.96723106456028
sg12
F-69.96644335138542
sa(dp93
g2
g3
sg4
I3180
sg5
g86
sg7
F43.911284034387215
sg8
F0.9993357062339783
sg9
F43.911866928637956
sg10
I2988
sg11
F-69.96713774271517
sg12
F-69.96635010363912
sa(dp94
g2
g3
sg4
I3244
sg5
g86
sg7
F43.910707882986664
sg8
F0.9935124516487122
sg9
F43.911290777162506
sg10
I2988
sg11
F-69.96712841205702
sg12
F-69.96634078038964
sa(dp95
g2
g3
sg4
I3372
sg5
g86
sg7
F43.90955558000591
sg8
F0.5633812546730042
sg9
F43.910138474031974
sg10
I2988
sg11
F-69.96710975157315
sg12
F-69.96632213472246
sa(dp96
g2
g3
sg4
I2604
sg5
g86
sg7
F43.916476138284885
sg8
F0.9998921155929565
sg9
F43.917059027786195
sg10
I3052
sg11
F-69.9664246996175
sg12
F-69.96563698588794
sa(dp97
g2
g3
sg4
I3116
sg5
g86
sg7
F43.911866928637956
sg8
F0.9995335340499878
sg9
F43.91244981754086
sg10
I3052
sg11
F-69.96635010363912
sg12
F-69.96556244919047
sa(dp98
g2
g3
sg4
I5676
sg5
g86
sg7
F43.88882082289875
sg8
F0.5399940609931946
sg9
F43.88940370881214
sg10
I3052
sg11
F-69.96597738982679
sg12
F-69.96519003157306
sa(dp99
g2
g3
sg4
I2604
sg5
g86
sg7
F43.91648287671516
sg8
F0.9994656443595886
sg9
F43.91706576079278
sg10
I3116
sg11
F-69.9656276678309
sg12
F-69.96483994613597
sa(dp100
g2
g3
sg4
I3116
sg5
g86
sg7
F43.91187366599065
sg8
F0.7431877255439758
sg9
F43.91245654947075
sg10
I3116
sg11
F-69.96555313335014
sg12
F-69.96476547093805
sa(dp101
g2
g3
sg4
I2540
sg5
g86
sg7
F43.91706576079278
sg8
F0.9391258955001831
sg9
F43.91764863952117
sg10
I3180
sg11
F-69.96483994613597
sg12
F-69.9640522090643
sa(dp102
g2
g3
sg4
I3052
sg5
g86
sg7
F43.91245654947075
sg8
F0.8257806301116943
sg9
F43.91303942760246
sg10
I3180
sg11
F-69.96476547093805
sg12
F-69.96397779315289
sa(dp103
g2
g3
sg4
I3180
sg5
g86
sg7
F43.91131097214468
sg8
F0.7870672345161438
sg9
F43.911893844704316
sg10
I3244
sg11
F-69.96394989175039
sg12
F-69.96316222082187
sa(dp104
g2
g3
sg4
I4204
sg5
g86
sg7
F43.90211937418703
sg8
F0.9273339509963989
sg9
F43.902702223869625
sg10
I3500
sg11
F-69.96061376270735
sg12
F-69.95982617847301
sa(dp105
g2
g3
sg4
I4460
sg5
g86
sg7
F43.89981476009215
sg8
F0.7133644223213196
sg9
F43.90039760947883
sg10
I3500
sg11
F-69.96057670531587
sg12
F-69.95978915070856
sa(dp106
g2
g3
sg4
I2220
sg5
g86
sg7
F43.91998680126172
sg8
F0.7569032311439514
sg9
F43.92056964781389
sg10
I3564
sg11
F-69.96010402714592
sg12
F-69.95931620521822
sa(dp107
g2
g3
sg4
I2284
sg5
g86
sg7
F43.9194173441832
sg8
F0.8517717719078064
sg9
F43.92000018523627
sg10
I3628
sg11
F-69.959297689088
sg12
F-69.95850986660959
sa(dp108
g2
g3
sg4
I2348
sg5
g86
sg7
F43.918847881218376
sg8
F0.9946131110191345
sg9
F43.91943071677242
sg10
I3692
sg11
F-69.95849136640877
sg12
F-69.95770354338012
sa(dp109
g2
g3
sg4
I3372
sg5
g86
sg7
F43.90963612169712
sg8
F0.7027127146720886
sg9
F43.91021895064823
sg10
I3756
sg11
F-69.95754646210526
sg12
F-69.95675874971631
sa(dp110
g2
g3
sg4
I940
sg5
g86
sg7
F43.931536579323996
sg8
F0.5834705829620361
sg9
F43.93211940564529
sg10
I3820
sg11
F-69.95710045984592
sg12
F-69.95631245771223
sa(dp111
g2
g3
sg4
I4908
sg5
g86
sg7
F43.89581510108906
sg8
F0.6465367078781128
sg9
F43.8963979228538
sg10
I3820
sg11
F-69.95652807726178
sg12
F-69.95574053471927
sa(dp112
g2
g3
sg4
I5100
sg5
g86
sg7
F43.89409330315829
sg8
F0.5297632217407227
sg9
F43.894676119281925
sg10
I3884
sg11
F-69.95570367265951
sg12
F-69.9549161443805
sa(dp113
g2
g3
sg4
I4140
sg5
g86
sg7
F43.9027489424709
sg8
F0.6358000040054321
sg9
F43.903331748848984
sg10
I4012
sg11
F-69.9542482258811
sg12
F-69.95346057058063
sa(dp114
g2
g3
sg4
I2732
sg5
g86
sg7
F43.91543097983557
sg8
F0.5400999784469604
sg9
F43.91601378239773
sg10
I4076
sg11
F-69.95365375326138
sg12
F-69.95286592694139
sa(dp115
g2
g3
sg4
I1900
sg5
g86
sg7
F43.92292761770026
sg8
F0.9990429282188416
sg9
F43.92351041578574
sg10
I4140
sg11
F-69.95297628223818
sg12
F-69.9521883515484
sa(dp116
g2
g3
sg4
I1260
sg5
g86
sg7
F43.92869578726291
sg8
F0.9459789395332336
sg9
F43.92927858065043
sg10
I4204
sg11
F-69.95227107710674
sg12
F-69.95148306426482
sa(dp117
g2
g3
sg4
I5676
sg5
g86
sg7
F43.888941148703125
sg8
F0.5478722453117371
sg9
F43.88952393706599
sg10
I4204
sg11
F-69.95163741332516
sg12
F-69.95084991193411
sa(dp118
g2
g3
sg4
I2348
sg5
g86
sg7
F43.91890783153573
sg8
F0.8863239884376526
sg9
F43.919490618258024
sg10
I4268
sg11
F-69.95131776881217
sg12
F-69.9505298741142
sa(dp119
g2
g3
sg4
I6252
sg5
g86
sg7
F43.883768996144376
sg8
F0.7735938429832458
sg9
F43.88435177301339
sg10
I4332
sg11
F-69.94996165930941
sg12
F-69.94917420865708
sa(dp120
g2
g3
sg4
I2412
sg5
g86
sg7
F43.9183449391192
sg8
F0.9922164678573608
sg9
F43.918927714916165
sg10
I4396
sg11
F-69.94971446789552
sg12
F-69.94892656469023
sa(dp121
g2
g3
sg4
I3500
sg5
g86
sg7
F43.90855031940308
sg8
F0.9972112774848938
sg9
F43.90913309396729
sg10
I4396
sg11
F-69.94955870275618
sg12
F-69.94877092560237
sa(dp122
g2
g3
sg4
I3884
sg5
g86
sg7
F43.905093390667886
sg8
F0.5712001323699951
sg9
F43.905676164797164
sg10
I4396
sg11
F-69.94950374562372
sg12
F-69.94871601294359
sa(dp123
g2
g3
sg4
I2476
sg5
g86
sg7
F43.91777540746693
sg8
F0.9982542395591736
sg9
F43.918358177765
sg10
I4460
sg11
F-69.9489082501248
sg12
F-69.9481203463748
sa(dp124
g2
g3
sg4
I2732
sg5
g86
sg7
F43.915503815679465
sg8
F0.8482298254966736
sg9
F43.91608655855655
sg10
I4780
sg11
F-69.94488650927208
sg12
F-69.94409859538882
sa(dp125
g2
g3
sg4
I1324
sg5
S'/DeepOSM/data/naip/43069/m_4306902_ne_19_1_20130811.tif'
p126
sg7
F43.990224461083834
sg8
F0.5102089643478394
sg9
F43.990806284139694
sg10
I556
sg11
F-69.81002779324079
sg12
F-69.80923757046212
sa(dp127
g2
g3
sg4
I1644
sg5
g126
sg7
F43.98736056742166
sg8
F0.6690497994422913
sg9
F43.987942373829874
sg10
I748
sg11
F-69.80759457228348
sg12
F-69.8068043630792
sa(dp128
g2
g3
sg4
I6188
sg5
g126
sg7
F43.94645244957802
sg8
F0.599086344242096
sg9
F43.94703425220998
sg10
I748
sg11
F-69.80704048044029
sg12
F-69.80625080213746
sa(dp129
g2
g3
sg4
I6764
sg5
g126
sg7
F43.9414714504385
sg8
F0.5221362709999084
sg9
F43.94205305081444
sg10
I3116
sg11
F-69.77746647500184
sg12
F-69.77667657061514
sa(dp130
g2
g3
sg4
I6380
sg5
g126
sg7
F43.944933937357824
sg8
F0.5021509528160095
sg9
F43.945515532571804
sg10
I3180
sg11
F-69.77671408053985
sg12
F-69.77592412336628
sa(dp131
g2
g3
sg4
I492
sg5
g126
sg7
F43.997979863485256
sg8
F0.6557552814483643
sg9
F43.998561424944356
sg10
I3628
sg11
F-69.77181812434311
sg12
F-69.77102742264096
sa(dp132
g2
g3
sg4
I3116
sg5
g126
sg7
F43.97436750632756
sg8
F0.6873288750648499
sg9
F43.97494905487902
sg10
I3756
sg11
F-69.76991638609267
sg12
F-69.7691259758363
sa(dp133
g2
g3
sg4
I4652
sg5
g126
sg7
F43.96055538238973
sg8
F0.5034422874450684
sg9
F43.961136913406264
sg10
I3948
sg11
F-69.76734479426241
sg12
F-69.76655453995139
sa(dp134
g2
g3
sg4
I6060
sg5
g126
sg7
F43.94794861576835
sg8
F0.6900482773780823
sg9
F43.94853007476822
sg10
I4780
sg11
F-69.7568142637979
sg12
F-69.75602407116646
sa(dp135
g2
g3
sg4
I4524
sg5
g126
sg7
F43.96178746587705
sg8
F0.5446017384529114
sg9
F43.96236891506222
sg10
I4908
sg11
F-69.75539443060725
sg12
F-69.75460404242094
sa(dp136
g2
g3
sg4
I4588
sg5
g126
sg7
F43.96121128752139
sg8
F0.5821031332015991
sg9
F43.96179273666048
sg10
I4908
sg11
F-69.75538712980507
sg12
F-69.75459674910947
sa(dp137
g2
g3
sg4
I6380
sg5
g126
sg7
F43.94509405597923
sg8
F0.5159871578216553
sg9
F43.94567548745021
sg10
I5100
sg11
F-69.75279042066418
sg12
F-69.75200022586459
sa(dp138
g2
g3
sg4
I684
sg5
S'/DeepOSM/data/naip/43069/m_4306902_nw_19_1_20130811.tif'
p139
sg7
F43.99607533994283
sg8
F0.5048338174819946
sg9
F43.99665750954831
sg10
I1516
sg11
F-69.86070622198926
sg12
F-69.85991642306631
sa(dp140
g2
g3
sg4
I364
sg5
g139
sg7
F43.99896214887947
sg8
F0.7604871988296509
sg9
F43.99954431333299
sg10
I1580
sg11
F-69.85994970968804
sg12
F-69.85915986542757
sa(dp141
g2
g3
sg4
I7020
sg5
g139
sg7
F43.93909494577924
sg8
F0.6216766834259033
sg9
F43.939677054963205
sg10
I2156
sg11
F-69.85190932234973
sg12
F-69.85112018273416
sa(dp142
g2
g3
sg4
I7148
sg5
g139
sg7
F43.937984087981846
sg8
F0.8745734095573425
sg9
F43.938566158934876
sg10
I2604
sg11
F-69.84631145682862
sg12
F-69.84552227652864
sa(dp143
g2
g3
sg4
I5484
sg5
g139
sg7
F43.95301738773898
sg8
F0.6095219254493713
sg9
F43.95359941117729
sg10
I3180
sg11
F-69.83934611108748
sg12
F-69.83855666537477
sa(dp144
g2
g3
sg4
I7212
sg5
g139
sg7
F43.937460845084615
sg8
F0.6117859482765198
sg9
F43.93804286697009
sg10
I3180
sg11
F-69.83912723519121
sg12
F-69.83833799088964
sa(dp145
g2
g3
sg4
I2732
sg5
g139
sg7
F43.97784508070371
sg8
F0.5182009339332581
sg9
F43.97842705753119
sg10
I3756
sg11
F-69.83251413140725
sg12
F-69.83172429300842
sa(dp146
g2
g3
sg4
I6892
sg5
g139
sg7
F43.940423129977724
sg8
F0.5165665745735168
sg9
F43.941005075887986
sg10
I4076
sg11
F-69.82800443402498
sg12
F-69.82721504130186
sa(dp147
g2
g3
sg4
I6572
sg5
g139
sg7
F43.94333855380324
sg8
F0.9912073016166687
sg9
F43.94392046729915
sg10
I4460
sg11
F-69.82325989491525
sg12
F-69.82247041726042
sa(dp148
g2
g3
sg4
I1580
sg5
g139
sg7
F43.98829119087556
sg8
F0.5082861185073853
sg9
F43.98887309777734
sg10
I4588
sg11
F-69.82228479933195
sg12
F-69.82149472293094
sa(dp149
g2
g3
sg4
I6124
sg5
g139
sg7
F43.94739468813714
sg8
F0.618833065032959
sg9
F43.94797658021889
sg10
I4716
sg11
F-69.8201256583969
sg12
F-69.81933609673997
sa(dp150
g2
g3
sg4
I6508
sg5
g139
sg7
F43.9439376621683
sg8
F0.574394166469574
sg9
F43.94451955392066
sg10
I4716
sg11
F-69.82007812750695
sg12
F-69.81928861064294
sa(dp151
g2
g3
sg4
I6380
sg5
g139
sg7
F43.94509572511904
sg8
F0.5720800161361694
sg9
F43.94567761153099
sg10
I4780
sg11
F-69.81929652440381
sg12
F-69.81850698467343
sa(dp152
g2
g3
sg4
I5996
sg5
g139
sg7
F43.948564177183975
sg8
F0.5568122863769531
sg9
F43.94914605302255
sg10
I4908
sg11
F-69.81774902720979
sg12
F-69.81695942680768
sa(dp153
g2
g3
sg4
I6380
sg5
g139
sg7
F43.94510714987213
sg8
F0.6084071397781372
sg9
F43.945689025383246
sg10
I4908
sg11
F-69.8177016321169
sg12
F-69.81691207651461
sa(dp154
g2
g3
sg4
I620
sg5
g139
sg7
F43.99696804907756
sg8
F0.715564489364624
sg9
F43.99754992404804
sg10
I4972
sg11
F-69.81761530728174
sg12
F-69.81682507089002
sa(dp155
g2
g3
sg4
I3180
sg5
S'/DeepOSM/data/naip/43069/m_4306902_se_19_1_20130731.tif'
p156
sg7
F43.91099575835665
sg8
F0.9977532029151917
sg9
F43.91157759626949
sg10
I364
sg11
F-69.81220292981466
sg12
F-69.81141376629971
sa(dp157
g2
g3
sg4
I3180
sg5
g156
sg7
F43.91100142054797
sg8
F0.9850555658340454
sg9
F43.911583253015955
sg10
I428
sg11
F-69.81140593783068
sg12
F-69.81061676639554
sa(dp158
g2
g3
sg4
I3180
sg5
g156
sg7
F43.911007077181345
sg8
F0.9963149428367615
sg9
F43.911588904204365
sg10
I492
sg11
F-69.81060894561386
sg12
F-69.80981976625877
sa(dp159
g2
g3
sg4
I5164
sg5
g156
sg7
F43.89317939895586
sg8
F0.6608336567878723
sg9
F43.893761191668204
sg10
I876
sg11
F-69.8055860877011
sg12
F-69.80479709187046
sa(dp160
g2
g3
sg4
I6444
sg5
g156
sg7
F43.88165581941827
sg8
F0.9986485838890076
sg9
F43.88223761107463
sg10
I876
sg11
F-69.80543078632323
sg12
F-69.8046419394381
sa(dp161
g2
g3
sg4
I1196
sg5
g156
sg7
F43.928907965676174
sg8
F0.6995837688446045
sg9
F43.929489756218345
sg10
I940
sg11
F-69.80527087711664
sg12
F-69.80448141106946
sa(dp162
g2
g3
sg4
I2796
sg5
g156
sg7
F43.914509189682796
sg8
F0.9095505475997925
sg9
F43.91509097345802
sg10
I1004
sg11
F-69.80427955868241
sg12
F-69.80349027123103
sa(dp163
g2
g3
sg4
I7084
sg5
g156
sg7
F43.87590523694674
sg8
F0.5109774470329285
sg9
F43.876487017197014
sg10
I1004
sg11
F-69.80376011934754
sg12
F-69.80297133109441
sa(dp164
g2
g3
sg4
I2924
sg5
g156
sg7
F43.9133736412522
sg8
F0.7557690739631653
sg9
F43.913955408582396
sg10
I1196
sg11
F-69.80187296218988
sg12
F-69.80108366589819
sa(dp165
g2
g3
sg4
I3372
sg5
g156
sg7
F43.90934599135624
sg8
F0.997912585735321
sg9
F43.90992775287403
sg10
I1260
sg11
F-69.8010218367162
sg12
F-69.80023258471108
sa(dp166
g2
g3
sg4
I2348
sg5
g156
sg7
F43.91857598810948
sg8
F0.7864083051681519
sg9
F43.91915773956726
sg10
I1388
sg11
F-69.79955131920839
sg12
F-69.79876193202195
sa(dp167
g2
g3
sg4
I1708
sg5
g156
sg7
F43.92438220269525
sg8
F0.7984647154808044
sg9
F43.924963911076695
sg10
I1900
sg11
F-69.79325110412348
sg12
F-69.79246157894487
sa(dp168
g2
g3
sg4
I1324
sg5
g156
sg7
F43.92786135803115
sg8
F0.5846250653266907
sg9
F43.92844304491597
sg10
I2156
sg11
F-69.79010816537925
sg12
F-69.78931856372
sa(dp169
g2
g3
sg4
I5740
sg5
g156
sg7
F43.888110502837684
sg8
F0.7490904331207275
sg9
F43.88869218078082
sg10
I2220
sg11
F-69.78878572536445
sg12
F-69.78799663052861
sa(dp170
g2
g3
sg4
I6124
sg5
g156
sg7
F43.88470812390847
sg8
F0.5311356782913208
sg9
F43.885289747111536
sg10
I2860
sg11
F-69.78077364234845
sg12
F-69.77998451320428
sa(dp171
g2
g3
sg4
I1132
sg5
g156
sg7
F43.92967738296079
sg8
F0.5874791145324707
sg9
F43.93025898275902
sg10
I3180
sg11
F-69.77737510892264
sg12
F-69.77658535814138
sa(dp172
g2
g3
sg4
I5484
sg5
g156
sg7
F43.89052411312331
sg8
F0.66450035572052
sg9
F43.891105682361214
sg10
I3500
sg11
F-69.77288165989562
sg12
F-69.77209237718473
sa(dp173
g2
g3
sg4
I6956
sg5
g156
sg7
F43.877288017879266
sg8
F0.768210768699646
sg9
F43.877869569673194
sg10
I3692
sg11
F-69.77032068635015
sg12
F-69.76953155143087
sa(dp174
g2
g3
sg4
I6444
sg5
g156
sg7
F43.88192427796214
sg8
F0.9945188164710999
sg9
F43.88250580291231
sg10
I4012
sg11
F-69.7663970172047
sg12
F-69.76560778316764
sa(dp175
g2
g3
sg4
I3820
sg5
g156
sg7
F43.90555315489029
sg8
F0.551375687122345
sg9
F43.906134676337025
sg10
I4076
sg11
F-69.76590312626516
sg12
F-69.76511357841498
sa(dp176
g2
g3
sg4
I3052
sg5
g156
sg7
F43.91247801649271
sg8
F0.7172206044197083
sg9
F43.913059527604936
sg10
I4204
sg11
F-69.76439775653093
sg12
F-69.76360810325826
sa(dp177
g2
g3
sg4
I3372
sg5
g156
sg7
F43.909623691539835
sg8
F0.5831412672996521
sg9
F43.91020517515761
sg10
I4524
sg11
F-69.76037596850037
sg12
F-69.75958631304128
sa(dp178
g2
g3
sg4
I3372
sg5
g156
sg7
F43.90964486058746
sg8
F0.6250565052032471
sg9
F43.9102263223965
sg10
I4780
sg11
F-69.75718803287563
sg12
F-69.75639834579735
sa(dp179
g2
g3
sg4
I2412
sg5
S'/DeepOSM/data/naip/43069/m_4306902_sw_19_1_20130731.tif'
p180
sg7
F43.9179770947262
sg8
F0.9933350086212158
sg9
F43.91855930586537
sg10
I1004
sg11
F-69.86686611706328
sg12
F-69.86607740091215
sa(dp181
g2
g3
sg4
I3116
sg5
g180
sg7
F43.911657367541835
sg8
F0.7123109102249146
sg9
F43.91223956169581
sg10
I1196
sg11
F-69.86438314342345
sg12
F-69.86359448530362
sa(dp182
g2
g3
sg4
I3692
sg5
g180
sg7
F43.90648389885796
sg8
F0.6058586239814758
sg9
F43.907066081590905
sg10
I1324
sg11
F-69.86271425459043
sg12
F-69.86192564754973
sa(dp183
g2
g3
sg4
I2540
sg5
g180
sg7
F43.91686094117049
sg8
F0.952483057975769
sg9
F43.91744311955679
sg10
I1388
sg11
F-69.86206703122149
sg12
F-69.86127828232841
sa(dp184
g2
g3
sg4
I1900
sg5
g180
sg7
F43.92265860259426
sg8
F0.6139664649963379
sg9
F43.92324074894544
sg10
I1772
sg11
F-69.85736740566247
sg12
F-69.85657853470889
sa(dp185
g2
g3
sg4
I4908
sg5
g180
sg7
F43.8955846217171
sg8
F0.6177148222923279
sg9
F43.89616675981763
sg10
I1836
sg11
F-69.85618196970954
sg12
F-69.85539344052987
sa(dp186
g2
g3
sg4
I4780
sg5
g180
sg7
F43.89676079977278
sg8
F0.6324517726898193
sg9
F43.89734291624888
sg10
I2092
sg11
F-69.85301130904438
sg12
F-69.85222273328806
sa(dp187
g2
g3
sg4
I7084
sg5
g180
sg7
F43.87602454243446
sg8
F0.992841362953186
sg9
F43.8766066513446
sg10
I2156
sg11
F-69.85191882691184
sg12
F-69.85113051082423
sa(dp188
g2
g3
sg4
I4460
sg5
g180
sg7
F43.89966540472452
sg8
F0.5076370239257812
sg9
F43.900247499749256
sg10
I2348
sg11
F-69.84986510985247
sg12
F-69.8490764652025
sa(dp189
g2
g3
sg4
I4076
sg5
g180
sg7
F43.90315199760471
sg8
F0.9999970197677612
sg9
F43.90373406579197
sg10
I2668
sg11
F-69.8459298920015
sg12
F-69.84514116307868
sa(dp190
g2
g3
sg4
I2284
sg5
g180
sg7
F43.91929067657458
sg8
F0.5481559634208679
sg9
F43.919872740955
sg10
I2732
sg11
F-69.84536134836688
sg12
F-69.8445724030644
sa(dp191
g2
g3
sg4
I3308
sg5
g180
sg7
F43.91007194949799
sg8
F0.8966389298439026
sg9
F43.910654012945834
sg10
I2732
sg11
F-69.8452308468539
sg12
F-69.84444202068869
sa(dp192
g2
g3
sg4
I4076
sg5
g180
sg7
F43.90315789418877
sg8
F0.9999059438705444
sg9
F43.903739956937535
sg10
I2732
sg11
F-69.84513301146288
sg12
F-69.84434427461369
sa(dp193
g2
g3
sg4
I4076
sg5
g180
sg7
F43.903163785216584
sg8
F0.9999550580978394
sg9
F43.9037458425267
sg10
I2796
sg11
F-69.84433613068185
sg12
F-69.84354738590649
sa(dp194
g2
g3
sg4
I5804
sg5
g180
sg7
F43.88760712624765
sg8
F0.5831403732299805
sg9
F43.888189181989
sg10
I2796
sg11
F-69.84411633603759
sg12
F-69.84332779211394
sa(dp195
g2
g3
sg4
I6380
sg5
g180
sg7
F43.88242156361428
sg8
F0.5850549936294556
sg9
F43.88300361883302
sg10
I2796
sg11
F-69.84404311035969
sg12
F-69.84325463335104
sa(dp196
g2
g3
sg4
I6252
sg5
g180
sg7
F43.88357979275513
sg8
F0.5184410810470581
sg9
F43.88416184265497
sg10
I2860
sg11
F-69.84326276113576
sg12
F-69.84247426134077
sa(dp197
g2
g3
sg4
I2860
sg5
g180
sg7
F43.91412280759183
sg8
F0.5134044289588928
sg9
F43.91470485512518
sg10
I2924
sg11
F-69.8428968524508
sg12
F-69.84210795037862
sa(dp198
g2
g3
sg4
I6764
sg5
g180
sg7
F43.87897627469167
sg8
F0.6367255449295044
sg9
F43.879558318693654
sg10
I2924
sg11
F-69.84240118688012
sg12
F-69.8416127386398
sa(dp199
g2
g3
sg4
I7212
sg5
g180
sg7
F43.87496064099994
sg8
F0.5132022500038147
sg9
F43.87554266829598
sg10
I3116
sg11
F-69.83995484817103
sg12
F-69.83916642821647
sa(dp200
g2
g3
sg4
I5740
sg5
g180
sg7
F43.88822435984572
sg8
F0.6402950286865234
sg9
F43.88880637759135
sg10
I3244
sg11
F-69.8385476991276
sg12
F-69.837759092334
sa(dp201
g2
g3
sg4
I5292
sg5
g180
sg7
F43.89227509363191
sg8
F0.6739994287490845
sg9
F43.89285709546603
sg10
I3436
sg11
F-69.83621408041986
sg12
F-69.83542539779677
sa(dp202
g2
g3
sg4
I5932
sg5
g180
sg7
F43.886513350126386
sg8
F0.5450500249862671
sg9
F43.887095351390585
sg10
I3436
sg11
F-69.83613346825322
sg12
F-69.83534486002026
sa(dp203
g2
g3
sg4
I4460
sg5
g180
sg7
F43.899771180501915
sg8
F0.5849639177322388
sg9
F43.90035317763805
sg10
I3500
sg11
F-69.83552207474486
sg12
F-69.83473328745939
sa(dp204
g2
g3
sg4
I4844
sg5
g180
sg7
F43.896314139055086
sg8
F0.69724041223526
sg9
F43.8968961358497
sg10
I3500
sg11
F-69.83547373195866
sg12
F-69.8346849893285
sa(dp205
g2
g3
sg4
I7148
sg5
g180
sg7
F43.87557184538851
sg8
F0.674172043800354
sg9
F43.87615384013574
sg10
I3500
sg11
F-69.83518385628663
sg12
F-69.83439538142204
sa(dp206
g2
g3
sg4
I3116
sg5
g180
sg7
F43.911876634794794
sg8
F0.7138246893882751
sg9
F43.91245862768514
sg10
I3564
sg11
F-69.83489434348195
sg12
F-69.83410539191357
sa(dp207
g2
g3
sg4
I5228
sg5
g180
sg7
F43.89286291772257
sg8
F0.5658045411109924
sg9
F43.89344490873774
sg10
I3564
sg11
F-69.83462865239909
sg12
F-69.83383994649702
sa(dp208
g2
g3
sg4
I5484
sg5
g180
sg7
F43.89055822034087
sg8
F0.5180714130401611
sg9
F43.89114021112887
sg10
I3564
sg11
F-69.83459646513242
sg12
F-69.83380778899182
sa(dp209
g2
g3
sg4
I5484
sg5
g180
sg7
F43.890564036577906
sg8
F0.5498518943786621
sg9
F43.89114602192818
sg10
I3628
sg11
F-69.83379975021312
sg12
F-69.83301106615441
sa(dp210
g2
g3
sg4
I1132
sg5
g180
sg7
F43.9297495890855
sg8
F0.5893213748931885
sg9
F43.93033157284916
sg10
I3692
sg11
F-69.83354969424592
sg12
F-69.83276049581362
sa(dp211
g2
g3
sg4
I4972
sg5
g180
sg7
F43.895179242932194
sg8
F0.5726044178009033
sg9
F43.895761223297185
sg10
I3692
sg11
F-69.83306729053872
sg12
F-69.83227853903192
sa(dp212
g2
g3
sg4
I6124
sg5
g180
sg7
F43.88480809731735
sg8
F0.6238330602645874
sg9
F43.88539007666424
sg10
I3692
sg11
F-69.8329227371907
sg12
F-69.83213411960715
sa(dp213
g2
g3
sg4
I5164
sg5
g180
sg7
F43.89345652571132
sg8
F0.5277416706085205
sg9
F43.8940385004681
sg10
I3756
sg11
F-69.8322464391462
sg12
F-69.83145770204602
sa(dp214
g2
g3
sg4
I5292
sg5
g180
sg7
F43.89230997648459
sg8
F0.6003364324569702
sg9
F43.89289194569004
sg10
I3820
sg11
F-69.83143365196138
sg12
F-69.8306449218261
sa(dp215
g2
g3
sg4
I2412
sg5
g180
sg7
F43.91824357959838
sg8
F0.8819985389709473
sg9
F43.918825545898414
sg10
I3884
sg11
F-69.83099754388316
sg12
F-69.83020847072761
sa(dp216
g2
g3
sg4
I5228
sg5
g180
sg7
F43.89289194569004
sg8
F0.5545557141304016
sg9
F43.89347390951323
sg10
I3884
sg11
F-69.8306449218261
sg12
F-69.829856176331
sa(dp217
g2
g3
sg4
I5356
sg5
g180
sg7
F43.89173959595751
sg8
F0.6584049463272095
sg9
F43.89232155966821
sg10
I3884
sg11
F-69.83062890451077
sg12
F-69.82984017389921
sa(dp218
g2
g3
sg4
I6188
sg5
g180
sg7
F43.88424931689587
sg8
F0.6312037110328674
sg9
F43.884831279875634
sg10
I3884
sg11
F-69.83052481517534
sg12
F-69.82973618128538
sa(dp219
g2
g3
sg4
I3628
sg5
g180
sg7
F43.90730208909215
sg8
F0.9982519745826721
sg9
F43.90788404888068
sg10
I3948
sg11
F-69.83004827976347
sg12
F-69.82925934022605
sa(dp220
g2
g3
sg4
I6316
sg5
g180
sg7
F43.883102752341905
sg8
F0.5366291999816895
sg9
F43.883684709772325
sg10
I3948
sg11
F-69.82971218869761
sg12
F-69.82892356177067
sa(dp221
g2
g3
sg4
I4204
sg5
g180
sg7
F43.9021338647762
sg8
F0.5591849684715271
sg9
F43.902715807736925
sg10
I4140
sg11
F-69.82758561426866
sg12
F-69.82679671798795
sa(dp222
g2
g3
sg4
I4268
sg5
g180
sg7
F43.901557690429144
sg8
F0.6191021800041199
sg9
F43.902139633334045
sg10
I4140
sg11
F-69.82757763241447
sg12
F-69.82678874358011
sa(dp223
g2
g3
sg4
I1068
sg5
g180
sg7
F43.93037210912283
sg8
F0.8060684204101562
sg9
F43.93095404937616
sg10
I4204
sg11
F-69.82717976860125
sg12
F-69.82639049924754
sa(dp224
g2
g3
sg4
I4268
sg5
g180
sg7
F43.90156922175818
sg8
F0.5542194247245789
sg9
F43.90215115378128
sg10
I4268
sg11
F-69.82598390616727
sg12
F-69.8251950014919
sa(dp225
g2
g3
sg4
I5420
sg5
g180
sg7
F43.89120382444986
sg8
F0.6849064826965332
sg9
F43.89178575003295
sg10
I4332
sg11
F-69.82504382468395
sg12
F-69.82425504609782
sa(dp226
g2
g3
sg4
I5356
sg5
g180
sg7
F43.89178575003295
sg8
F0.5088441371917725
sg9
F43.89236767023225
sg10
I4396
sg11
F-69.82425504609782
sg12
F-69.82346625215266
sa(dp227
g2
g3
sg4
I5548
sg5
g180
sg7
F43.89005722221991
sg8
F0.6872100234031677
sg9
F43.8906391422531
sg10
I4396
sg11
F-69.82423120621006
sg12
F-69.82344243459424
sa(dp228
g2
g3
sg4
I3372
sg5
g180
sg7
F43.90965292058489
sg8
F0.8799589276313782
sg9
F43.91023483705885
sg10
I4460
sg11
F-69.82370454463313
sg12
F-69.82291551191244
sa(dp229
g2
g3
sg4
I4012
sg5
g180
sg7
F43.90389117641466
sg8
F0.846707820892334
sg9
F43.90447309233546
sg10
I4460
sg11
F-69.82362509018438
sg12
F-69.8228361319577
sa(dp230
g2
g3
sg4
I3308
sg5
g180
sg7
F43.91024630515367
sg8
F0.9480511546134949
sg9
F43.910828205353425
sg10
I4652
sg11
F-69.82132155227384
sg12
F-69.82053248833401
sa(dp231
g2
g3
sg4
I6060
sg5
g180
sg7
F43.885476471584795
sg8
F0.7349288463592529
sg9
F43.88605836398269
sg10
I4716
sg11
F-69.82018439668171
sg12
F-69.8193956450378
sa(dp232
g2
g3
sg4
I3436
sg5
g180
sg7
F43.90910540163242
sg8
F0.814117431640625
sg9
F43.909687290835706
sg10
I4780
sg11
F-69.81971177530612
sg12
F-69.81892271042506
sa(dp233
g2
g3
sg4
I3180
sg5
g180
sg7
F43.91143292611189
sg8
F0.6640161275863647
sg9
F43.91201479375826
sg10
I5036
sg11
F-69.8165554235401
sg12
F-69.81576629716292
sa(dp234
g2
g3
sg4
I3052
sg5
g180
sg7
F43.912590968753385
sg8
F0.9788878560066223
sg9
F43.91317283106396
sg10
I5100
sg11
F-69.81577416797616
sg12
F-69.81498501876995
sa(dp235
g2
g3
sg4
I2028
sg5
S'/DeepOSM/data/naip/43069/m_4306903_ne_19_1_20130811.tif'
p236
sg7
F43.98389034104188
sg8
F0.5406275391578674
sg9
F43.98447130085329
sg10
I620
sg11
F-69.68405017519731
sg12
F-69.68325879418202
sa(dp237
g2
g3
sg4
I4268
sg5
g236
sg7
F43.96377600361253
sg8
F0.6366188526153564
sg9
F43.9643569019408
sg10
I1324
sg11
F-69.6750437882635
sg12
F-69.67425258337633
sa(dp238
g2
g3
sg4
I4140
sg5
g236
sg7
F43.964937794829474
sg8
F0.6750158071517944
sg9
F43.96551868227815
sg10
I1452
sg11
F-69.67346136307037
sg12
F-69.67267012734514
sa(dp239
g2
g3
sg4
I1196
sg5
g236
sg7
F43.991465855396974
sg8
F0.9340996146202087
sg9
F43.992046717048446
sg10
I1772
sg11
F-69.66977055213457
sg12
F-69.66897893086276
sa(dp240
g2
g3
sg4
I300
sg5
g236
sg7
F43.99954180242539
sg8
F0.8512548804283142
sg9
F44.000122653593685
sg10
I1900
sg11
F-69.6682648884922
sg12
F-69.66747314598017
sa(dp241
g2
g3
sg4
I6316
sg5
g236
sg7
F43.94538011283853
sg8
F0.6901290416717529
sg9
F43.94596096080205
sg10
I1900
sg11
F-69.6676578071956
sg12
F-69.66686677162892
sa(dp242
g2
g3
sg4
I940
sg5
g236
sg7
F43.993844744766385
sg8
F0.8027999997138977
sg9
F43.994425518843926
sg10
I2796
sg11
F-69.65702645704218
sg12
F-69.65623467906177
sa(dp243
g2
g3
sg4
I4204
sg5
g236
sg7
F43.96445911585048
sg8
F0.6188874840736389
sg9
F43.96503988826649
sg10
I2796
sg11
F-69.65670247925078
sg12
F-69.65591108512511
sa(dp244
g2
g3
sg4
I6892
sg5
g236
sg7
F43.94027278870671
sg8
F0.5418140888214111
sg9
F43.940853543339095
sg10
I2988
sg11
F-69.6540438106014
sg12
F-69.65325270849195
sa(dp245
g2
g3
sg4
I3820
sg5
g236
sg7
F43.9679345536015
sg8
F0.5794008374214172
sg9
F43.968515304300006
sg10
I3052
sg11
F-69.65354944580433
sg12
F-69.65275797495171
sa(dp246
g2
g3
sg4
I300
sg5
g236
sg7
F43.99962949719867
sg8
F0.9927997589111328
sg9
F44.000210244181176
sg10
I3116
sg11
F-69.65309901336977
sg12
F-69.65230712049417
sa(dp247
g2
g3
sg4
I7020
sg5
g236
sg7
F43.939129519547706
sg8
F0.7380040287971497
sg9
F43.939710263169964
sg10
I3116
sg11
F-69.65243638594711
sg12
F-69.65164528308735
sa(dp248
g2
g3
sg4
I3372
sg5
g236
sg7
F43.972026742327245
sg8
F0.5265439748764038
sg9
F43.97260742201157
sg10
I3884
sg11
F-69.64322180413896
sg12
F-69.6424301779294
sa(dp249
g2
g3
sg4
I3436
sg5
g236
sg7
F43.971450551214694
sg8
F0.5000332593917847
sg9
F43.97203123086832
sg10
I3884
sg11
F-69.64321558520328
sg12
F-69.64242396652142
sa(dp250
g2
g3
sg4
I6380
sg5
g236
sg7
F43.94497251869585
sg8
F0.622759997844696
sg9
F43.94555316408418
sg10
I4268
sg11
F-69.63814485909626
sg12
F-69.63735353913111
sa(dp251
g2
g3
sg4
I3180
sg5
g236
sg7
F43.97382646779116
sg8
F0.6353196501731873
sg9
F43.974407059856894
sg10
I4908
sg11
F-69.6304746678963
sg12
F-69.6296828927559
sa(dp252
g2
g3
sg4
I2348
sg5
S'/DeepOSM/data/naip/43069/m_4306903_nw_19_1_20130811.tif'
p253
sg7
F43.98105039083985
sg8
F0.7936962842941284
sg9
F43.98163174109605
sg10
I1068
sg11
F-69.74097527442316
sg12
F-69.7401844911968
sa(dp254
g2
g3
sg4
I2348
sg5
g253
sg7
F43.98105556274935
sg8
F0.8662781715393066
sg9
F43.981636907537116
sg10
I1132
sg11
F-69.74017733243677
sg12
F-69.73938654128162
sa(dp255
g2
g3
sg4
I2348
sg5
g253
sg7
F43.98117297885886
sg8
F0.593936562538147
sg9
F43.98175419784004
sg10
I2604
sg11
F-69.72182460841009
sg12
F-69.7210336349541
sa(dp256
g2
g3
sg4
I1964
sg5
g253
sg7
F43.98464516178904
sg8
F0.5576377511024475
sg9
F43.9852263646032
sg10
I2796
sg11
F-69.71947251867668
sg12
F-69.71868147639333
sa(dp257
g2
g3
sg4
I3564
sg5
g253
sg7
F43.970255668517815
sg8
F0.5511278510093689
sg9
F43.97083685389415
sg10
I2988
sg11
F-69.71690519727473
sg12
F-69.71611431892472
sa(dp258
g2
g3
sg4
I684
sg5
g253
sg7
F43.99630245680154
sg8
F0.5636785626411438
sg9
F43.996883512589655
sg10
I4524
sg11
F-69.69806166849447
sg12
F-69.69727026195733
sa(dp259
g2
g3
sg4
I6636
sg5
S'/DeepOSM/data/naip/43069/m_4306903_se_19_1_20130731.tif'
p260
sg7
F43.8800144207503
sg8
F0.9349733591079712
sg9
F43.88059524797406
sg10
I2156
sg11
F-69.66446275195219
sg12
F-69.66367254279625
sa(dp261
g2
g3
sg4
I7084
sg5
g260
sg7
F43.876077067446175
sg8
F0.5637542605400085
sg9
F43.876657779766035
sg10
I3500
sg11
F-69.64769030555381
sg12
F-69.64689998368262
sa(dp262
g2
g3
sg4
I940
sg5
g260
sg7
F43.931414570718886
sg8
F0.5111655592918396
sg9
F43.93199525867694
sg10
I3820
sg11
F-69.64430385863143
sg12
F-69.64351277736688
sa(dp263
g2
g3
sg4
I876
sg5
g260
sg7
F43.93199974602983
sg8
F0.992679238319397
sg9
F43.93258042307276
sg10
I3948
sg11
F-69.64271547515125
sg12
F-69.64192437061182
sa(dp264
g2
g3
sg4
I1260
sg5
g260
sg7
F43.92855600088449
sg8
F0.668138861656189
sg9
F43.92913666132624
sg10
I4140
sg11
F-69.640286476457
sg12
F-69.63949539334894
sa(dp265
g2
g3
sg4
I6956
sg5
g260
sg7
F43.8773493471907
sg8
F0.5452684760093689
sg9
F43.8779299120605
sg10
I5228
sg11
F-69.62619530849243
sg12
F-69.62540475948857
sa(dp266
g2
g3
sg4
I3180
sg5
S'/DeepOSM/data/naip/43069/m_4306903_sw_19_1_20130731.tif'
p267
sg7
F43.91108812052749
sg8
F0.6263269186019897
sg9
F43.91166943807557
sg10
I1452
sg11
F-69.73610886802773
sg12
F-69.73531895486937
sa(dp268
g2
g3
sg4
I1452
sg5
g267
sg7
F43.926650254850664
sg8
F0.6590991616249084
sg9
F43.927231568111104
sg10
I1516
sg11
F-69.73550348272602
sg12
F-69.73471335970751
sa(dp269
g2
g3
sg4
I1196
sg5
g267
sg7
F43.92896524499114
sg8
F0.7396165132522583
sg9
F43.92954654750607
sg10
I1644
sg11
F-69.73393739172887
sg12
F-69.73314722296462
sa(dp270
g2
g3
sg4
I3052
sg5
g267
sg7
F43.91225587078714
sg8
F0.5860516428947449
sg9
F43.91283717205363
sg10
I1644
sg11
F-69.73373200300273
sg12
F-69.73294205119274
sa(dp271
g2
g3
sg4
I1772
sg5
g267
sg7
F43.92378469952952
sg8
F0.5721817016601562
sg9
F43.92436599619832
sg10
I1708
sg11
F-69.73307645408529
sg12
F-69.73228634476813
sa(dp272
g2
g3
sg4
I4972
sg5
g267
sg7
F43.894980477184255
sg8
F0.6365964412689209
sg9
F43.895561766254666
sg10
I1772
sg11
F-69.73192613203614
sg12
F-69.73113638868281
sa(dp273
g2
g3
sg4
I1004
sg5
g267
sg7
F43.93070913628599
sg8
F0.5276003479957581
sg9
F43.93129042255035
sg10
I1836
sg11
F-69.73156683926469
sg12
F-69.73077662432806
sa(dp274
g2
g3
sg4
I2604
sg5
g267
sg7
F43.916309602148175
sg8
F0.5670303702354431
sg9
F43.91689088188677
sg10
I1900
sg11
F-69.73059325264572
sg12
F-69.72980321688428
sa(dp275
g2
g3
sg4
I6188
sg5
g267
sg7
F43.8840785817102
sg8
F0.5971636176109314
sg9
F43.884659820903636
sg10
I2348
sg11
F-69.72462223963625
sg12
F-69.72383256723485
sa(dp276
g2
g3
sg4
I3628
sg5
g267
sg7
F43.907131195172184
sg8
F0.5158483386039734
sg9
F43.90771243057969
sg10
I2412
sg11
F-69.7241048315722
sg12
F-69.72331485231027
sa(dp277
g2
g3
sg4
I5420
sg5
g267
sg7
F43.89102809412246
sg8
F0.6198636889457703
sg9
F43.89160929563944
sg10
I2796
sg11
F-69.71912887424365
sg12
F-69.71833905698105
sa(dp278
g2
g3
sg4
I7148
sg5
g267
sg7
F43.87547594594834
sg8
F0.6094689965248108
sg9
F43.87605714090786
sg10
I2860
sg11
F-69.71814521476861
sg12
F-69.71735559134495
sa(dp279
g2
g3
sg4
I6700
sg5
g267
sg7
F43.87958376023818
sg8
F0.5715460181236267
sg9
F43.88016487368697
sg10
I3820
sg11
F-69.70624479426641
sg12
F-69.70545500036584
sa(dp280
g2
g3
sg4
I1324
sg5
S'/DeepOSM/data/naip/43069/m_4306904_ne_19_1_20130811.tif'
p281
sg7
F43.9902090226498
sg8
F0.6266458034515381
sg9
F43.990789144684534
sg10
I364
sg11
F-69.56220843732379
sg12
F-69.56141577588019
sa(dp282
g2
g3
sg4
I1324
sg5
g281
sg7
F43.99021294680726
sg8
F0.6273282170295715
sg9
F43.99079306334626
sg10
I428
sg11
F-69.56141034429976
sg12
F-69.56061767497403
sa(dp283
g2
g3
sg4
I1772
sg5
g281
sg7
F43.986183478052894
sg8
F0.72352534532547
sg9
F43.98676358896052
sg10
I492
sg11
F-69.56057428861453
sg12
F-69.55978166431538
sa(dp284
g2
g3
sg4
I1388
sg5
g281
sg7
F43.989667940839055
sg8
F0.6410272121429443
sg9
F43.99024801338912
sg10
I940
sg11
F-69.5550202246499
sg12
F-69.55422749983572
sa(dp285
g2
g3
sg4
I2348
sg5
g281
sg7
F43.981036556917346
sg8
F0.5054754614830017
sg9
F43.981616612703334
sg10
I1132
sg11
F-69.55254578557718
sg12
F-69.55175315051791
sa(dp286
g2
g3
sg4
I5548
sg5
g281
sg7
F43.952234196946925
sg8
F0.5832829475402832
sg9
F43.95281424084327
sg10
I1260
sg11
F-69.55068361083445
sg12
F-69.54989133766352
sa(dp287
g2
g3
sg4
I2476
sg5
g281
sg7
F43.979990015757046
sg8
F0.5917274951934814
sg9
F43.980569917598565
sg10
I2924
sg11
F-69.53019227003503
sg12
F-69.5293994296696
sa(dp288
g2
g3
sg4
I5292
sg5
g281
sg7
F43.95469555117239
sg8
F0.5591479539871216
sg9
F43.95527536443834
sg10
I3948
sg11
F-69.51720484557141
sg12
F-69.51641221209648
sa(dp289
g2
g3
sg4
I3884
sg5
g281
sg7
F43.967439682980995
sg8
F0.5000554919242859
sg9
F43.9680193920632
sg10
I5164
sg11
F-69.50215673594965
sg12
F-69.50136378684023
sa(dp290
g2
g3
sg4
I3628
sg5
S'/DeepOSM/data/naip/43069/m_4306904_nw_19_1_20130811.tif'
p291
sg7
F43.969478368404005
sg8
F0.9749330878257751
sg9
F43.970058903367146
sg10
I556
sg11
F-69.62215095548474
sg12
F-69.62135915589259
sa(dp292
g2
g3
sg4
I1452
sg5
g291
sg7
F43.98911639894513
sg8
F0.5603658556938171
sg9
F43.989696874491145
sg10
I1260
sg11
F-69.6135767917286
sg12
F-69.61278464901287
sa(dp293
g2
g3
sg4
I1260
sg5
g291
sg7
F43.99084925968374
sg8
F0.7703137993812561
sg9
F43.99142972982112
sg10
I1324
sg11
F-69.61279650618167
sg12
F-69.61200433293847
sa(dp294
g2
g3
sg4
I3308
sg5
g291
sg7
F43.97244511078881
sg8
F0.5192354321479797
sg9
F43.9730255361932
sg10
I1836
sg11
F-69.60622409172737
sg12
F-69.60543209667338
sa(dp295
g2
g3
sg4
I2988
sg5
g291
sg7
F43.97533031624403
sg8
F0.5857720971107483
sg9
F43.975910736289876
sg10
I1900
sg11
F-69.60545551356323
sg12
F-69.60466347292382
sa(dp296
g2
g3
sg4
I2668
sg5
g291
sg7
F43.97821551549938
sg8
F0.6994435787200928
sg9
F43.978795930185484
sg10
I1964
sg11
F-69.60468686243905
sg12
F-69.6038947762065
sa(dp297
g2
g3
sg4
I2796
sg5
g291
sg7
F43.977063126012524
sg8
F0.5387203097343445
sg9
F43.97764354064783
sg10
I1964
sg11
F-69.60467516733337
sg12
F-69.60388309618342
sa(dp298
g2
g3
sg4
I7020
sg5
g291
sg7
F43.93903835486495
sg8
F0.7234718203544617
sg9
F43.939618762347116
sg10
I2028
sg11
F-69.60349221685293
sg12
F-69.60270063505462
sa(dp299
g2
g3
sg4
I5804
sg5
g291
sg7
F43.950019647135655
sg8
F0.5408709049224854
sg9
F43.950600011236254
sg10
I2540
sg11
F-69.59722258941699
sg12
F-69.59643080155953
sa(dp300
g2
g3
sg4
I4972
sg5
g291
sg7
F43.957596554035156
sg8
F0.5360169410705566
sg9
F43.958176803253835
sg10
I3884
sg11
F-69.58054692059682
sg12
F-69.57975486938784
sa(dp301
g2
g3
sg4
I3500
sg5
g291
sg7
F43.970857219981035
sg8
F0.6307977437973022
sg9
F43.97143745872846
sg10
I4012
sg11
F-69.57908033803
sg12
F-69.57828809757055
sa(dp302
g2
g3
sg4
I5228
sg5
S'/DeepOSM/data/naip/43069/m_4306904_se_19_1_20130731.tif'
p303
sg7
F43.89256560033569
sg8
F0.5728265047073364
sg9
F43.89314571214209
sg10
I492
sg11
F-69.56028054498017
sg12
F-69.55948915136003
sa(dp304
g2
g3
sg4
I1388
sg5
g303
sg7
F43.92721508263301
sg8
F0.5745651721954346
sg9
F43.92779508589367
sg10
I1772
sg11
F-69.5446599433259
sg12
F-69.54386794095707
sa(dp305
g2
g3
sg4
I4716
sg5
g303
sg7
F43.89736367925665
sg8
F0.5302272439002991
sg9
F43.897943517166915
sg10
I3692
sg11
F-69.52048109411339
sg12
F-69.51968924839309
sa(dp306
g2
g3
sg4
I5932
sg5
g303
sg7
F43.88642651505096
sg8
F0.7507818341255188
sg9
F43.887006336254935
sg10
I3884
sg11
F-69.51799562054256
sg12
F-69.51720389445511
sa(dp307
g2
g3
sg4
I5292
sg5
g303
sg7
F43.892217356693756
sg8
F0.5843626856803894
sg9
F43.89279713416226
sg10
I4396
sg11
F-69.5116712482931
sg12
F-69.51087938424988
sa(dp308
g2
g3
sg4
I6380
sg5
g303
sg7
F43.882439498290815
sg8
F0.5376009345054626
sg9
F43.88301924813434
sg10
I4716
sg11
F-69.5076041035551
sg12
F-69.50681232845837
sa(dp309
g2
g3
sg4
I4332
sg5
g303
sg7
F43.90089594757775
sg8
F0.7452232837677002
sg9
F43.90147567037069
sg10
I5036
sg11
F-69.5037762084426
sg12
F-69.50298415303939
sa(dp310
g2
g3
sg4
I6508
sg5
g303
sg7
F43.8813117043075
sg8
F0.7280987501144409
sg9
F43.88189141574624
sg10
I5164
sg11
F-69.5020178030764
sg12
F-69.50122598829019
sa(dp311
g2
g3
sg4
I6572
sg5
g303
sg7
F43.88073548979321
sg8
F0.5814778804779053
sg9
F43.88131520122081
sg10
I5164
sg11
F-69.50201296465039
sg12
F-69.50122115739782
sa(dp312
g2
g3
sg4
I6700
sg5
S'/DeepOSM/data/naip/43069/m_4306904_sw_19_1_20130731.tif'
p313
sg7
F43.879317820306376
sg8
F0.954096794128418
sg9
F43.87989835538114
sg10
I556
sg11
F-69.62185925763549
sg12
F-69.62106864037588
sa(dp314
g2
g3
sg4
I3436
sg5
g313
sg7
F43.908730024850136
sg8
F0.5084648132324219
sg9
F43.90931052850501
sg10
I940
sg11
F-69.61738316697671
sg12
F-69.61659211983843
sa(dp315
g2
g3
sg4
I2860
sg5
g313
sg7
F43.91394156637399
sg8
F0.6566107273101807
sg9
F43.91452203743111
sg10
I1324
sg11
F-69.61265438724273
sg12
F-69.61186322530163
sa(dp316
g2
g3
sg4
I5612
sg5
g313
sg7
F43.88916489729817
sg8
F0.5291742086410522
sg9
F43.88974536722088
sg10
I1324
sg11
F-69.61240035474763
sg12
F-69.6116095157087
sa(dp317
g2
g3
sg4
I3244
sg5
g313
sg7
F43.910526814648456
sg8
F0.5311139225959778
sg9
F43.91110723080894
sg10
I1964
sg11
F-69.60464871631423
sg12
F-69.60385752082358
sa(dp318
g2
g3
sg4
I5804
sg5
g313
sg7
F43.88753301815753
sg8
F0.5292829275131226
sg9
F43.88811336218705
sg10
I2796
sg11
F-69.5940582153458
sg12
F-69.59326721821891
sa.